
keypad.elf:     file format elf32-littlearm


Disassembly of section .text:

00000000 <_start>:
   0:	e3a00207 	mov	r0, #1879048192	; 0x70000000
   4:	e3800013 	orr	r0, r0, #19
   8:	ee0f0f92 	mcr	15, 0, r0, cr15, cr2, {4}
   c:	e59f0010 	ldr	r0, [pc, #16]	; 24 <halt+0x4>
  10:	e3a01000 	mov	r1, #0
  14:	e5801000 	str	r1, [r0]
  18:	e3a0da02 	mov	sp, #8192	; 0x2000
  1c:	eb0000de 	bl	39c <main>

00000020 <halt>:
  20:	eafffffe 	b	20 <halt>
  24:	7e004000 	cdpvc	0, 0, cr4, cr0, cr0, {0}

00000028 <led_init>:
  28:	e52db004 	push	{fp}		; (str fp, [sp, #-4]!)
  2c:	e28db000 	add	fp, sp, #0
  30:	e59f3064 	ldr	r3, [pc, #100]	; 9c <led_init+0x74>
  34:	e5933000 	ldr	r3, [r3]
  38:	e59f305c 	ldr	r3, [pc, #92]	; 9c <led_init+0x74>
  3c:	e3a02000 	mov	r2, #0
  40:	e5832000 	str	r2, [r3]
  44:	e59f3050 	ldr	r3, [pc, #80]	; 9c <led_init+0x74>
  48:	e59f204c 	ldr	r2, [pc, #76]	; 9c <led_init+0x74>
  4c:	e5922000 	ldr	r2, [r2]
  50:	e382201e 	orr	r2, r2, #30
  54:	e5832000 	str	r2, [r3]
  58:	e59f3040 	ldr	r3, [pc, #64]	; a0 <led_init+0x78>
  5c:	e5933000 	ldr	r3, [r3]
  60:	e59f3038 	ldr	r3, [pc, #56]	; a0 <led_init+0x78>
  64:	e3a02000 	mov	r2, #0
  68:	e5832000 	str	r2, [r3]
  6c:	e59f202c 	ldr	r2, [pc, #44]	; a0 <led_init+0x78>
  70:	e59f3028 	ldr	r3, [pc, #40]	; a0 <led_init+0x78>
  74:	e5933000 	ldr	r3, [r3]
  78:	e3833c11 	orr	r3, r3, #4352	; 0x1100
  7c:	e3833011 	orr	r3, r3, #17
  80:	e5823000 	str	r3, [r2]
  84:	e59f3018 	ldr	r3, [pc, #24]	; a4 <led_init+0x7c>
  88:	e3a0200f 	mov	r2, #15
  8c:	e5832000 	str	r2, [r3]
  90:	e28bd000 	add	sp, fp, #0
  94:	e8bd0800 	pop	{fp}
  98:	e12fff1e 	bx	lr
  9c:	7f008828 	svcvc	0x00008828
  a0:	7f008820 	svcvc	0x00008820
  a4:	7f008824 	svcvc	0x00008824

000000a8 <led_on>:
  a8:	e52db004 	push	{fp}		; (str fp, [sp, #-4]!)
  ac:	e28db000 	add	fp, sp, #0
  b0:	e24dd00c 	sub	sp, sp, #12
  b4:	e50b0008 	str	r0, [fp, #-8]
  b8:	e59f302c 	ldr	r3, [pc, #44]	; ec <led_on+0x44>
  bc:	e59f2028 	ldr	r2, [pc, #40]	; ec <led_on+0x44>
  c0:	e5921000 	ldr	r1, [r2]
  c4:	e51b2008 	ldr	r2, [fp, #-8]
  c8:	e2422001 	sub	r2, r2, #1
  cc:	e3a00001 	mov	r0, #1
  d0:	e1a02210 	lsl	r2, r0, r2
  d4:	e1e02002 	mvn	r2, r2
  d8:	e0012002 	and	r2, r1, r2
  dc:	e5832000 	str	r2, [r3]
  e0:	e28bd000 	add	sp, fp, #0
  e4:	e8bd0800 	pop	{fp}
  e8:	e12fff1e 	bx	lr
  ec:	7f008824 	svcvc	0x00008824

000000f0 <led_off>:
  f0:	e52db004 	push	{fp}		; (str fp, [sp, #-4]!)
  f4:	e28db000 	add	fp, sp, #0
  f8:	e24dd00c 	sub	sp, sp, #12
  fc:	e50b0008 	str	r0, [fp, #-8]
 100:	e59f302c 	ldr	r3, [pc, #44]	; 134 <led_off+0x44>
 104:	e59f2028 	ldr	r2, [pc, #40]	; 134 <led_off+0x44>
 108:	e5921000 	ldr	r1, [r2]
 10c:	e51b2008 	ldr	r2, [fp, #-8]
 110:	e2422001 	sub	r2, r2, #1
 114:	e3a00001 	mov	r0, #1
 118:	e1a02210 	lsl	r2, r0, r2
 11c:	e1e02002 	mvn	r2, r2
 120:	e1812002 	orr	r2, r1, r2
 124:	e5832000 	str	r2, [r3]
 128:	e28bd000 	add	sp, fp, #0
 12c:	e8bd0800 	pop	{fp}
 130:	e12fff1e 	bx	lr
 134:	7f008824 	svcvc	0x00008824

00000138 <delay>:
 138:	e52db004 	push	{fp}		; (str fp, [sp, #-4]!)
 13c:	e28db000 	add	fp, sp, #0
 140:	e24dd00c 	sub	sp, sp, #12
 144:	e3a03801 	mov	r3, #65536	; 0x10000
 148:	e50b3008 	str	r3, [fp, #-8]
 14c:	e1a00000 	nop			; (mov r0, r0)
 150:	e51b3008 	ldr	r3, [fp, #-8]
 154:	e3530000 	cmp	r3, #0
 158:	03a02000 	moveq	r2, #0
 15c:	13a02001 	movne	r2, #1
 160:	e6ef2072 	uxtb	r2, r2
 164:	e2433001 	sub	r3, r3, #1
 168:	e50b3008 	str	r3, [fp, #-8]
 16c:	e3520000 	cmp	r2, #0
 170:	1afffff6 	bne	150 <delay+0x18>
 174:	e28bd000 	add	sp, fp, #0
 178:	e8bd0800 	pop	{fp}
 17c:	e12fff1e 	bx	lr

00000180 <buzzer_init>:
 180:	e52db004 	push	{fp}		; (str fp, [sp, #-4]!)
 184:	e28db000 	add	fp, sp, #0
 188:	e59f3058 	ldr	r3, [pc, #88]	; 1e8 <buzzer_init+0x68>
 18c:	e5933000 	ldr	r3, [r3]
 190:	e59f3050 	ldr	r3, [pc, #80]	; 1e8 <buzzer_init+0x68>
 194:	e3a02000 	mov	r2, #0
 198:	e5832000 	str	r2, [r3]
 19c:	e59f3044 	ldr	r3, [pc, #68]	; 1e8 <buzzer_init+0x68>
 1a0:	e59f2040 	ldr	r2, [pc, #64]	; 1e8 <buzzer_init+0x68>
 1a4:	e5922000 	ldr	r2, [r2]
 1a8:	e3822101 	orr	r2, r2, #1073741824	; 0x40000000
 1ac:	e5832000 	str	r2, [r3]
 1b0:	e59f3034 	ldr	r3, [pc, #52]	; 1ec <buzzer_init+0x6c>
 1b4:	e5933000 	ldr	r3, [r3]
 1b8:	e59f302c 	ldr	r3, [pc, #44]	; 1ec <buzzer_init+0x6c>
 1bc:	e3a02000 	mov	r2, #0
 1c0:	e5832000 	str	r2, [r3]
 1c4:	e59f2024 	ldr	r2, [pc, #36]	; 1f0 <buzzer_init+0x70>
 1c8:	e59f3020 	ldr	r3, [pc, #32]	; 1f0 <buzzer_init+0x70>
 1cc:	e5933000 	ldr	r3, [r3]
 1d0:	e1a03823 	lsr	r3, r3, #16
 1d4:	e1a03803 	lsl	r3, r3, #16
 1d8:	e5823000 	str	r3, [r2]
 1dc:	e28bd000 	add	sp, fp, #0
 1e0:	e8bd0800 	pop	{fp}
 1e4:	e12fff1e 	bx	lr
 1e8:	7f0080a0 	svcvc	0x000080a0
 1ec:	7f0080a8 	svcvc	0x000080a8
 1f0:	7f0080a4 	svcvc	0x000080a4

000001f4 <buzzer_on>:
 1f4:	e52db004 	push	{fp}		; (str fp, [sp, #-4]!)
 1f8:	e28db000 	add	fp, sp, #0
 1fc:	e59f3018 	ldr	r3, [pc, #24]	; 21c <buzzer_on+0x28>
 200:	e59f2014 	ldr	r2, [pc, #20]	; 21c <buzzer_on+0x28>
 204:	e5922000 	ldr	r2, [r2]
 208:	e3822902 	orr	r2, r2, #32768	; 0x8000
 20c:	e5832000 	str	r2, [r3]
 210:	e28bd000 	add	sp, fp, #0
 214:	e8bd0800 	pop	{fp}
 218:	e12fff1e 	bx	lr
 21c:	7f0080a4 	svcvc	0x000080a4

00000220 <buzzer_off>:
 220:	e52db004 	push	{fp}		; (str fp, [sp, #-4]!)
 224:	e28db000 	add	fp, sp, #0
 228:	e59f201c 	ldr	r2, [pc, #28]	; 24c <buzzer_off+0x2c>
 22c:	e59f3018 	ldr	r3, [pc, #24]	; 24c <buzzer_off+0x2c>
 230:	e5933000 	ldr	r3, [r3]
 234:	e1a03823 	lsr	r3, r3, #16
 238:	e1a03803 	lsl	r3, r3, #16
 23c:	e5823000 	str	r3, [r2]
 240:	e28bd000 	add	sp, fp, #0
 244:	e8bd0800 	pop	{fp}
 248:	e12fff1e 	bx	lr
 24c:	7f0080a4 	svcvc	0x000080a4

00000250 <keypad_init>:
 250:	e92d4800 	push	{fp, lr}
 254:	e28db004 	add	fp, sp, #4
 258:	ebffff72 	bl	28 <led_init>
 25c:	ebffffc7 	bl	180 <buzzer_init>
 260:	e59f2020 	ldr	r2, [pc, #32]	; 288 <keypad_init+0x38>
 264:	e59f301c 	ldr	r3, [pc, #28]	; 288 <keypad_init+0x38>
 268:	e5933000 	ldr	r3, [r3]
 26c:	e3c33eff 	bic	r3, r3, #4080	; 0xff0
 270:	e3c3300f 	bic	r3, r3, #15
 274:	e5823000 	str	r3, [r2]
 278:	e59f300c 	ldr	r3, [pc, #12]	; 28c <keypad_init+0x3c>
 27c:	e59f200c 	ldr	r2, [pc, #12]	; 290 <keypad_init+0x40>
 280:	e5832000 	str	r2, [r3]
 284:	e8bd8800 	pop	{fp, pc}
 288:	7f008830 	svcvc	0x00008830
 28c:	7f008838 	svcvc	0x00008838
 290:	00000555 	andeq	r0, r0, r5, asr r5

00000294 <keypress>:
 294:	e92d4800 	push	{fp, lr}
 298:	e28db004 	add	fp, sp, #4
 29c:	e59f30f4 	ldr	r3, [pc, #244]	; 398 <keypress+0x104>
 2a0:	e5933000 	ldr	r3, [r3]
 2a4:	e203303e 	and	r3, r3, #62	; 0x3e
 2a8:	e353003e 	cmp	r3, #62	; 0x3e
 2ac:	0a000005 	beq	2c8 <keypress+0x34>
 2b0:	e3a00001 	mov	r0, #1
 2b4:	ebffff7b 	bl	a8 <led_on>
 2b8:	ebffff9e 	bl	138 <delay>
 2bc:	e3a00001 	mov	r0, #1
 2c0:	ebffff8a 	bl	f0 <led_off>
 2c4:	eafffff4 	b	29c <keypress+0x8>
 2c8:	e59f30c8 	ldr	r3, [pc, #200]	; 398 <keypress+0x104>
 2cc:	e5933000 	ldr	r3, [r3]
 2d0:	e203303d 	and	r3, r3, #61	; 0x3d
 2d4:	e353003d 	cmp	r3, #61	; 0x3d
 2d8:	0a000005 	beq	2f4 <keypress+0x60>
 2dc:	e3a00002 	mov	r0, #2
 2e0:	ebffff70 	bl	a8 <led_on>
 2e4:	ebffff93 	bl	138 <delay>
 2e8:	e3a00002 	mov	r0, #2
 2ec:	ebffff7f 	bl	f0 <led_off>
 2f0:	eaffffe9 	b	29c <keypress+0x8>
 2f4:	e59f309c 	ldr	r3, [pc, #156]	; 398 <keypress+0x104>
 2f8:	e5933000 	ldr	r3, [r3]
 2fc:	e203303b 	and	r3, r3, #59	; 0x3b
 300:	e353003b 	cmp	r3, #59	; 0x3b
 304:	0a000005 	beq	320 <keypress+0x8c>
 308:	e3a00003 	mov	r0, #3
 30c:	ebffff65 	bl	a8 <led_on>
 310:	ebffff88 	bl	138 <delay>
 314:	e3a00003 	mov	r0, #3
 318:	ebffff74 	bl	f0 <led_off>
 31c:	eaffffde 	b	29c <keypress+0x8>
 320:	e59f3070 	ldr	r3, [pc, #112]	; 398 <keypress+0x104>
 324:	e5933000 	ldr	r3, [r3]
 328:	e2033037 	and	r3, r3, #55	; 0x37
 32c:	e3530037 	cmp	r3, #55	; 0x37
 330:	0a000005 	beq	34c <keypress+0xb8>
 334:	e3a00004 	mov	r0, #4
 338:	ebffff5a 	bl	a8 <led_on>
 33c:	ebffff7d 	bl	138 <delay>
 340:	e3a00004 	mov	r0, #4
 344:	ebffff69 	bl	f0 <led_off>
 348:	eaffffd3 	b	29c <keypress+0x8>
 34c:	e59f3044 	ldr	r3, [pc, #68]	; 398 <keypress+0x104>
 350:	e5933000 	ldr	r3, [r3]
 354:	e203302f 	and	r3, r3, #47	; 0x2f
 358:	e353002f 	cmp	r3, #47	; 0x2f
 35c:	0a000003 	beq	370 <keypress+0xdc>
 360:	ebffffa3 	bl	1f4 <buzzer_on>
 364:	ebffff73 	bl	138 <delay>
 368:	ebffffac 	bl	220 <buzzer_off>
 36c:	eaffffca 	b	29c <keypress+0x8>
 370:	e3a00001 	mov	r0, #1
 374:	ebffff5d 	bl	f0 <led_off>
 378:	e3a00002 	mov	r0, #2
 37c:	ebffff5b 	bl	f0 <led_off>
 380:	e3a00003 	mov	r0, #3
 384:	ebffff59 	bl	f0 <led_off>
 388:	e3a00004 	mov	r0, #4
 38c:	ebffff57 	bl	f0 <led_off>
 390:	ebffffa2 	bl	220 <buzzer_off>
 394:	eaffffc0 	b	29c <keypress+0x8>
 398:	7f008834 	svcvc	0x00008834

0000039c <main>:
 39c:	e92d4800 	push	{fp, lr}
 3a0:	e28db004 	add	fp, sp, #4
 3a4:	ebffffa9 	bl	250 <keypad_init>
 3a8:	ebffffb9 	bl	294 <keypress>
 3ac:	e8bd8800 	pop	{fp, pc}
